; ModuleID = 'source-C-CXX/44/60.c'
source_filename = "source-C-CXX/44/60.c"
target datalayout = "e-m:e-p270:32:32-p271:32:32-p272:64:64-i64:64-f80:128-n8:16:32:64-S128"
target triple = "x86_64-pc-linux-gnu"

@.str = private unnamed_addr constant [6 x i8] c"%s %s\00", align 1
@.str.1 = private unnamed_addr constant [3 x i8] c"%d\00", align 1

; Function Attrs: nofree nounwind sspstrong uwtable
define dso_local i32 @main(i32 %0, i8** nocapture readnone %1) local_unnamed_addr #0 {
  %3 = alloca [50 x i8], align 16
  %4 = alloca [50 x i8], align 16
  %5 = alloca [50 x i8], align 16
  %6 = getelementptr inbounds [50 x i8], [50 x i8]* %5, i64 0, i64 0
  %7 = getelementptr inbounds [50 x i8], [50 x i8]* %3, i64 0, i64 0
  call void @llvm.lifetime.start.p0i8(i64 50, i8* nonnull %7) #5
  %8 = getelementptr inbounds [50 x i8], [50 x i8]* %4, i64 0, i64 0
  call void @llvm.lifetime.start.p0i8(i64 50, i8* nonnull %8) #5
  %9 = getelementptr inbounds [50 x i8], [50 x i8]* %5, i64 0, i64 0
  call void @llvm.lifetime.start.p0i8(i64 50, i8* nonnull %9) #5
  %10 = call i32 (i8*, ...) @__isoc99_scanf(i8* getelementptr inbounds ([6 x i8], [6 x i8]* @.str, i64 0, i64 0), i8* nonnull %7, i8* nonnull %8)
  %11 = call i64 @strlen(i8* noundef nonnull %7) #6
  %12 = trunc i64 %11 to i32
  %13 = load i8, i8* %7, align 16, !tbaa !5
  %14 = icmp sgt i32 %12, 0
  %15 = shl i64 %11, 32
  %16 = ashr exact i64 %15, 32
  %17 = getelementptr inbounds [50 x i8], [50 x i8]* %5, i64 0, i64 %16
  br i1 %14, label %18, label %32

18:                                               ; preds = %2
  %19 = and i64 %11, 4294967295
  br label %20

20:                                               ; preds = %18, %29
  %21 = phi i64 [ 0, %18 ], [ %30, %29 ]
  %22 = getelementptr [50 x i8], [50 x i8]* %4, i64 0, i64 %21
  %23 = load i8, i8* %22, align 1, !tbaa !5
  %24 = icmp eq i8 %23, %13
  br i1 %24, label %25, label %26

25:                                               ; preds = %20
  call void @llvm.memcpy.p0i8.p0i8.i64(i8* nonnull align 16 %6, i8* nonnull align 1 %22, i64 %19, i1 false)
  store i8 0, i8* %17, align 1, !tbaa !5
  br label %26

26:                                               ; preds = %25, %20
  %27 = call i32 @strcmp(i8* noundef nonnull %7, i8* noundef nonnull %9) #6
  %28 = icmp eq i32 %27, 0
  br i1 %28, label %41, label %29

29:                                               ; preds = %26
  %30 = add nuw nsw i64 %21, 1
  %31 = icmp eq i64 %30, 50
  br i1 %31, label %48, label %20, !llvm.loop !8

32:                                               ; preds = %2, %45
  %33 = phi i64 [ %46, %45 ], [ 0, %2 ]
  %34 = getelementptr inbounds [50 x i8], [50 x i8]* %4, i64 0, i64 %33
  %35 = load i8, i8* %34, align 1, !tbaa !5
  %36 = icmp eq i8 %35, %13
  br i1 %36, label %37, label %38

37:                                               ; preds = %32
  store i8 0, i8* %17, align 1, !tbaa !5
  br label %38

38:                                               ; preds = %37, %32
  %39 = call i32 @strcmp(i8* noundef nonnull %7, i8* noundef nonnull %9) #6
  %40 = icmp eq i32 %39, 0
  br i1 %40, label %41, label %45

41:                                               ; preds = %38, %26
  %42 = phi i64 [ %21, %26 ], [ %33, %38 ]
  %43 = trunc i64 %42 to i32
  %44 = call i32 (i8*, ...) @printf(i8* nonnull dereferenceable(1) getelementptr inbounds ([3 x i8], [3 x i8]* @.str.1, i64 0, i64 0), i32 %43)
  br label %48

45:                                               ; preds = %38
  %46 = add nuw nsw i64 %33, 1
  %47 = icmp eq i64 %46, 50
  br i1 %47, label %48, label %32, !llvm.loop !8

48:                                               ; preds = %45, %29, %41
  call void @llvm.lifetime.end.p0i8(i64 50, i8* nonnull %9) #5
  call void @llvm.lifetime.end.p0i8(i64 50, i8* nonnull %8) #5
  call void @llvm.lifetime.end.p0i8(i64 50, i8* nonnull %7) #5
  ret i32 0
}

; Function Attrs: argmemonly mustprogress nofree nosync nounwind willreturn
declare void @llvm.lifetime.start.p0i8(i64 immarg, i8* nocapture) #1

; Function Attrs: nofree nounwind
declare noundef i32 @__isoc99_scanf(i8* nocapture noundef readonly, ...) local_unnamed_addr #2

; Function Attrs: argmemonly mustprogress nofree nounwind readonly willreturn
declare i64 @strlen(i8* nocapture) local_unnamed_addr #3

; Function Attrs: argmemonly mustprogress nofree nounwind readonly willreturn
declare i32 @strcmp(i8* nocapture, i8* nocapture) local_unnamed_addr #3

; Function Attrs: nofree nounwind
declare noundef i32 @printf(i8* nocapture noundef readonly, ...) local_unnamed_addr #2

; Function Attrs: argmemonly mustprogress nofree nosync nounwind willreturn
declare void @llvm.lifetime.end.p0i8(i64 immarg, i8* nocapture) #1

; Function Attrs: argmemonly nofree nounwind willreturn
declare void @llvm.memcpy.p0i8.p0i8.i64(i8* noalias nocapture writeonly, i8* noalias nocapture readonly, i64, i1 immarg) #4


!llvm.module.flags = !{!0, !1, !2, !3}
!llvm.ident = !{!4}

!0 = !{i32 1, !"wchar_size", i32 4}
!1 = !{i32 7, !"PIC Level", i32 2}
!2 = !{i32 7, !"PIE Level", i32 2}
!3 = !{i32 7, !"uwtable", i32 1}
!4 = !{!"clang version 13.0.0"}
!5 = !{!6, !6, i64 0}
!6 = !{!"omnipotent char", !7, i64 0}
!7 = !{!"Simple C/C++ TBAA"}
!8 = distinct !{!8, !9}
!9 = !{!"llvm.loop.mustprogress"}
